; Function Attrs: nounwind uwtable
define internal ptr @typealias_evaluate_value(ptr noundef readonly captures(none) %0, ptr readnone captures(none) %1) #0 {
  %3 = getelementptr inbounds nuw i8, ptr %0, i64 32
  %4 = load ptr, ptr %3, align 8, !tbaa !135
  %.not = icmp eq ptr %4, null
  br i1 %.not, label %10, label %5

5:                                                ; preds = %2
  %6 = load i32, ptr %4, align 8, !tbaa !27
  %7 = icmp slt i32 %6, 0
  br i1 %7, label %_Py_NewRef.exit, label %8

8:                                                ; preds = %5
  %9 = add nuw i32 %6, 1
  store i32 %9, ptr %4, align 8, !tbaa !27
  br label %_Py_NewRef.exit

10:                                               ; preds = %2
  %11 = getelementptr inbounds nuw i8, ptr %0, i64 40
  %12 = load ptr, ptr %11, align 8, !tbaa !136
  %13 = tail call align 8 ptr @llvm.threadlocal.address.p0(ptr align 8 @_Py_tss_tstate)
  %14 = load ptr, ptr %13, align 8, !tbaa !28
  %15 = getelementptr inbounds nuw i8, ptr %14, i64 16
  %16 = load ptr, ptr %15, align 8, !tbaa !39
  %17 = getelementptr inbounds nuw i8, ptr %16, i64 224544
  %18 = load ptr, ptr %17, align 8, !tbaa !149
  %19 = tail call ptr @_PyObject_GC_New(ptr noundef %18) #8
  %20 = icmp eq ptr %19, null
  br i1 %20, label %_Py_NewRef.exit, label %21

21:                                               ; preds = %10
  %22 = load i32, ptr %12, align 8, !tbaa !27
  %23 = icmp slt i32 %22, 0
  br i1 %23, label %_Py_NewRef.exit.i, label %24

24:                                               ; preds = %21
  %25 = add nuw i32 %22, 1
  store i32 %25, ptr %12, align 8, !tbaa !27
  br label %_Py_NewRef.exit.i

_Py_NewRef.exit.i:                                ; preds = %24, %21
  %26 = getelementptr inbounds nuw i8, ptr %19, i64 16
  store ptr %12, ptr %26, align 8, !tbaa !151
  %27 = getelementptr i8, ptr %19, i64 -16
  %28 = load ptr, ptr %13, align 8, !tbaa !28
  %29 = getelementptr inbounds nuw i8, ptr %28, i64 16
  %30 = load ptr, ptr %29, align 8, !tbaa !39
  %31 = getelementptr inbounds nuw i8, ptr %30, i64 7424
  %32 = getelementptr inbounds nuw i8, ptr %30, i64 7432
  %33 = load i64, ptr %32, align 8, !tbaa !113
  %34 = inttoptr i64 %33 to ptr
  %35 = ptrtoint ptr %27 to i64
  %36 = load i64, ptr %34, align 8, !tbaa !114
  %37 = and i64 %36, 3
  %38 = or i64 %37, %35
  store i64 %38, ptr %34, align 8, !tbaa !114
  %39 = getelementptr i8, ptr %19, i64 -8
  %40 = load i64, ptr %39, align 8, !tbaa !113
  %41 = and i64 %40, 3
  %42 = or i64 %41, %33
  store i64 %42, ptr %39, align 8, !tbaa !113
  %43 = getelementptr inbounds nuw i8, ptr %30, i64 7632
  %44 = load i32, ptr %43, align 8, !tbaa !115
  %45 = xor i32 %44, 1
  %46 = sext i32 %45 to i64
  %47 = ptrtoint ptr %31 to i64
  %48 = or i64 %46, %47
  store i64 %48, ptr %27, align 8, !tbaa !114
  store i64 %35, ptr %32, align 8, !tbaa !113
  br label %_Py_NewRef.exit

_Py_NewRef.exit:                                  ; preds = %_Py_NewRef.exit.i, %10, %8, %5
  %.0 = phi ptr [ %4, %5 ], [ %4, %8 ], [ null, %10 ], [ %19, %_Py_NewRef.exit.i ]
  ret ptr %.0
}